target datalayout = "e-m:e-p270:32:32-p271:32:32-p272:64:64-i64:64-i128:128-f80:128-n8:16:32:64-S128"
target triple = "x86_64-pc-linux-gnu"

%struct.H5FD_sec2_t = type { %struct.H5FD_t, i32, i64, i64, i8, [1024 x i8], i64, i64, i8 }
%struct.H5FD_t = type { i64, ptr, i64, i32, i64, i64, i64, i64, i64, i8 }

; Function Attrs: nounwind uwtable
define internal i32 @H5FD__sec2_query(ptr noundef %0, ptr noundef %1) #0 {
  %3 = alloca ptr, align 8
  %4 = alloca ptr, align 8
  %5 = alloca ptr, align 8
  store ptr %0, ptr %3, align 8
  store ptr %1, ptr %4, align 8
  %6 = load ptr, ptr %3, align 8
  store ptr %6, ptr %5, align 8
  %7 = load ptr, ptr %4, align 8
  %8 = icmp ne ptr %7, null
  br i1 %8, label %9, label %44

9:                                                ; preds = %2
  %10 = load ptr, ptr %4, align 8
  store i64 0, ptr %10, align 8
  %11 = load ptr, ptr %4, align 8
  %12 = load i64, ptr %11, align 8
  %13 = or i64 %12, 1
  store i64 %13, ptr %11, align 8
  %14 = load ptr, ptr %4, align 8
  %15 = load i64, ptr %14, align 8
  %16 = or i64 %15, 6
  store i64 %16, ptr %14, align 8
  %17 = load ptr, ptr %4, align 8
  %18 = load i64, ptr %17, align 8
  %19 = or i64 %18, 8
  store i64 %19, ptr %17, align 8
  %20 = load ptr, ptr %4, align 8
  %21 = load i64, ptr %20, align 8
  %22 = or i64 %21, 16
  store i64 %22, ptr %20, align 8
  %23 = load ptr, ptr %4, align 8
  %24 = load i64, ptr %23, align 8
  %25 = or i64 %24, 128
  store i64 %25, ptr %23, align 8
  %26 = load ptr, ptr %4, align 8
  %27 = load i64, ptr %26, align 8
  %28 = or i64 %27, 4096
  store i64 %28, ptr %26, align 8
  %29 = load ptr, ptr %4, align 8
  %30 = load i64, ptr %29, align 8
  %31 = or i64 %30, 32768
  store i64 %31, ptr %29, align 8
  %32 = load ptr, ptr %5, align 8
  %33 = icmp ne ptr %32, null
  br i1 %33, label %34, label %43

34:                                               ; preds = %9
  %35 = load ptr, ptr %5, align 8
  %36 = getelementptr inbounds %struct.H5FD_sec2_t, ptr %35, i32 0, i32 8
  %37 = load i8, ptr %36, align 8
  %38 = trunc i8 %37 to i1
  br i1 %38, label %39, label %43

39:                                               ; preds = %34
  %40 = load ptr, ptr %4, align 8
  %41 = load i64, ptr %40, align 8
  %42 = or i64 %41, 32
  store i64 %42, ptr %40, align 8
  br label %43

43:                                               ; preds = %39, %34, %9
  br label %44

44:                                               ; preds = %43, %2
  ret i32 0
}