; Function Attrs: mustprogress nofree norecurse nosync nounwind willreturn memory(argmem: readwrite) uwtable
define internal noundef i32 @H5FD__sec2_query(ptr noundef readonly %0, ptr noundef writeonly %1) #6 {
  %.not = icmp eq ptr %1, null
  br i1 %.not, label %9, label %3

3:                                                ; preds = %2
  store i64 37023, ptr %1, align 8
  %.not14 = icmp eq ptr %0, null
  br i1 %.not14, label %9, label %4

4:                                                ; preds = %3
  %5 = getelementptr inbounds i8, ptr %0, i64 1152
  %6 = load i8, ptr %5, align 8
  %7 = trunc i8 %6 to i1
  br i1 %7, label %8, label %9

8:                                                ; preds = %4
  store i64 37055, ptr %1, align 8
  br label %9

9:                                                ; preds = %3, %4, %8, %2
  ret i32 0
}